target datalayout = "e-m:e-p270:32:32-p271:32:32-p272:64:64-i64:64-i128:128-f80:128-n8:16:32:64-S128"
target triple = "x86_64-pc-linux-gnu"

@_ZN5Error8r_error_E = external global i32, align 4

; Function Attrs: mustprogress nounwind uwtable
define linkonce_odr dso_local noundef i32 @_ZN5Error9get_errorEv() #4 comdat align 2 {
  %1 = load i32, ptr @_ZN5Error8r_error_E, align 4
  ret i32 %1
}

; Function Attrs: mustprogress uwtable
define dso_local noundef ptr @_ZN8Function11make_randomERK9CGContextPK4TypePK12CVQualifiers(ptr noundef nonnull align 8 dereferenceable(216) %0, ptr noundef %1, ptr noundef %2) #5 align 2 {
  %4 = alloca ptr, align 8
  %5 = alloca ptr, align 8
  %6 = alloca ptr, align 8
  %7 = alloca ptr, align 8
  %8 = alloca ptr, align 8
  store ptr %0, ptr %5, align 8
  store ptr %1, ptr %6, align 8
  store ptr %2, ptr %7, align 8
  %9 = load ptr, ptr %5, align 8
  %10 = load ptr, ptr %6, align 8
  %11 = load ptr, ptr %7, align 8
  %12 = call noundef ptr @_ZN8Function21make_random_signatureERK9CGContextPK4TypePK12CVQualifiers(ptr noundef nonnull align 8 dereferenceable(216) %9, ptr noundef %10, ptr noundef %11)
  store ptr %12, ptr %8, align 8
  %13 = call noundef i32 @_ZN5Error9get_errorEv()
  %14 = icmp ne i32 %13, 0
  br i1 %14, label %15, label %16

15:                                               ; preds = %3
  store ptr null, ptr %4, align 8
  br label %24

16:                                               ; preds = %3
  %17 = load ptr, ptr %8, align 8
  %18 = load ptr, ptr %5, align 8
  call void @_ZN8Function12GenerateBodyERK9CGContext(ptr noundef nonnull align 8 dereferenceable(424) %17, ptr noundef nonnull align 8 dereferenceable(216) %18)
  %19 = call noundef i32 @_ZN5Error9get_errorEv()
  %20 = icmp ne i32 %19, 0
  br i1 %20, label %21, label %22

21:                                               ; preds = %16
  store ptr null, ptr %4, align 8
  br label %24

22:                                               ; preds = %16
  %23 = load ptr, ptr %8, align 8
  store ptr %23, ptr %4, align 8
  br label %24

24:                                               ; preds = %22, %21, %15
  %25 = load ptr, ptr %4, align 8
  ret ptr %25
}