; Function Attrs: mustprogress uwtable
define dso_local noundef ptr @_ZN8Function11make_randomERK9CGContextPK4TypePK12CVQualifiers(ptr noundef nonnull align 8 dereferenceable(216) %0, ptr noundef %1, ptr noundef %2) local_unnamed_addr #4 align 2 {
  %4 = tail call noundef ptr @_ZN8Function21make_random_signatureERK9CGContextPK4TypePK12CVQualifiers(ptr noundef nonnull align 8 dereferenceable(216) %0, ptr noundef %1, ptr noundef %2)
  %5 = load i32, ptr @_ZN5Error8r_error_E, align 4
  %.not = icmp eq i32 %5, 0
  br i1 %.not, label %6, label %8

6:                                                ; preds = %3
  tail call void @_ZN8Function12GenerateBodyERK9CGContext(ptr noundef nonnull align 8 dereferenceable(424) %4, ptr noundef nonnull align 8 dereferenceable(216) %0)
  %7 = load i32, ptr @_ZN5Error8r_error_E, align 4
  %.not7 = icmp eq i32 %7, 0
  %. = select i1 %.not7, ptr %4, ptr null
  br label %8

8:                                                ; preds = %6, %3
  %.0 = phi ptr [ null, %3 ], [ %., %6 ]
  ret ptr %.0
}